; ModuleID = 'source-C-CXX/36/1842.c'
source_filename = "source-C-CXX/36/1842.c"
target datalayout = "e-m:e-p270:32:32-p271:32:32-p272:64:64-i64:64-f80:128-n8:16:32:64-S128"
target triple = "x86_64-pc-linux-gnu"

@.str = private unnamed_addr constant [3 x i8] c"%d\00", align 1
@.str.1 = private unnamed_addr constant [3 x i8] c"%s\00", align 1
@.str.2 = private unnamed_addr constant [4 x i8] c"%c\0A\00", align 1
@str = private unnamed_addr constant [3 x i8] c"no\00", align 1

; Function Attrs: nofree nounwind sspstrong uwtable
define dso_local i32 @main() local_unnamed_addr #0 {
  %1 = alloca i32, align 4
  %2 = alloca [100010 x i8], align 16
  %3 = alloca [100010 x i32], align 16
  %4 = bitcast i32* %1 to i8*
  call void @llvm.lifetime.start.p0i8(i64 4, i8* nonnull %4) #6
  %5 = call i32 (i8*, ...) @__isoc99_scanf(i8* getelementptr inbounds ([3 x i8], [3 x i8]* @.str, i64 0, i64 0), i32* nonnull %1)
  %6 = getelementptr inbounds [100010 x i8], [100010 x i8]* %2, i64 0, i64 0
  %7 = bitcast [100010 x i32]* %3 to i8*
  %8 = load i32, i32* %1, align 4, !tbaa !5
  %9 = icmp sgt i32 %8, 0
  br i1 %9, label %10, label %82

10:                                               ; preds = %0, %78
  %11 = phi i32 [ %79, %78 ], [ 0, %0 ]
  call void @llvm.lifetime.start.p0i8(i64 100010, i8* nonnull %6) #6
  call void @llvm.memset.p0i8.i64(i8* noundef nonnull align 16 dereferenceable(100010) %6, i8 0, i64 100010, i1 false)
  call void @llvm.lifetime.start.p0i8(i64 400040, i8* nonnull %7) #6
  call void @llvm.memset.p0i8.i64(i8* noundef nonnull align 16 dereferenceable(400040) %7, i8 0, i64 400040, i1 false)
  %12 = call i32 (i8*, ...) @__isoc99_scanf(i8* getelementptr inbounds ([3 x i8], [3 x i8]* @.str.1, i64 0, i64 0), i8* nonnull %6)
  %13 = call i64 @strlen(i8* noundef nonnull %6) #7
  %14 = trunc i64 %13 to i32
  %15 = icmp sgt i32 %14, 0
  br i1 %15, label %16, label %73

16:                                               ; preds = %10
  %17 = and i64 %13, 4294967295
  %18 = and i64 %13, 1
  %19 = icmp eq i64 %17, 1
  %20 = sub nsw i64 %17, %18
  %21 = icmp eq i64 %18, 0
  br label %22

22:                                               ; preds = %16, %50
  %23 = phi i64 [ 0, %16 ], [ %51, %50 ]
  %24 = getelementptr inbounds [100010 x i8], [100010 x i8]* %2, i64 0, i64 %23
  %25 = getelementptr inbounds [100010 x i32], [100010 x i32]* %3, i64 0, i64 %23
  %26 = load i8, i8* %24, align 1, !tbaa !9
  br i1 %19, label %41, label %27

27:                                               ; preds = %22, %86
  %28 = phi i64 [ %87, %86 ], [ 0, %22 ]
  %29 = phi i64 [ %88, %86 ], [ %20, %22 ]
  %30 = getelementptr inbounds [100010 x i8], [100010 x i8]* %2, i64 0, i64 %28
  %31 = load i8, i8* %30, align 2, !tbaa !9
  %32 = icmp eq i8 %26, %31
  br i1 %32, label %33, label %36

33:                                               ; preds = %27
  %34 = load i32, i32* %25, align 4, !tbaa !5
  %35 = add nsw i32 %34, 1
  store i32 %35, i32* %25, align 4, !tbaa !5
  br label %36

36:                                               ; preds = %33, %27
  %37 = or i64 %28, 1
  %38 = getelementptr inbounds [100010 x i8], [100010 x i8]* %2, i64 0, i64 %37
  %39 = load i8, i8* %38, align 1, !tbaa !9
  %40 = icmp eq i8 %26, %39
  br i1 %40, label %83, label %86

41:                                               ; preds = %86, %22
  %42 = phi i64 [ 0, %22 ], [ %87, %86 ]
  br i1 %21, label %50, label %43

43:                                               ; preds = %41
  %44 = getelementptr inbounds [100010 x i8], [100010 x i8]* %2, i64 0, i64 %42
  %45 = load i8, i8* %44, align 1, !tbaa !9
  %46 = icmp eq i8 %26, %45
  br i1 %46, label %47, label %50

47:                                               ; preds = %43
  %48 = load i32, i32* %25, align 4, !tbaa !5
  %49 = add nsw i32 %48, 1
  store i32 %49, i32* %25, align 4, !tbaa !5
  br label %50

50:                                               ; preds = %47, %43, %41
  %51 = add nuw nsw i64 %23, 1
  %52 = icmp eq i64 %51, %17
  br i1 %52, label %53, label %22, !llvm.loop !10

53:                                               ; preds = %50
  br i1 %15, label %54, label %73

54:                                               ; preds = %53
  %55 = and i64 %13, 4294967295
  br label %56

56:                                               ; preds = %54, %68
  %57 = phi i64 [ 0, %54 ], [ %69, %68 ]
  %58 = getelementptr inbounds [100010 x i32], [100010 x i32]* %3, i64 0, i64 %57
  %59 = load i32, i32* %58, align 4, !tbaa !5
  %60 = icmp eq i32 %59, 1
  br i1 %60, label %61, label %68

61:                                               ; preds = %56
  %62 = trunc i64 %57 to i32
  %63 = and i64 %57, 4294967295
  %64 = getelementptr inbounds [100010 x i8], [100010 x i8]* %2, i64 0, i64 %63
  %65 = load i8, i8* %64, align 1, !tbaa !9
  %66 = sext i8 %65 to i32
  %67 = call i32 (i8*, ...) @printf(i8* nonnull dereferenceable(1) getelementptr inbounds ([4 x i8], [4 x i8]* @.str.2, i64 0, i64 0), i32 %66)
  br label %73

68:                                               ; preds = %56
  %69 = add nuw nsw i64 %57, 1
  %70 = icmp eq i64 %69, %55
  br i1 %70, label %71, label %56, !llvm.loop !12

71:                                               ; preds = %68
  %72 = trunc i64 %13 to i32
  br label %73

73:                                               ; preds = %10, %71, %53, %61
  %74 = phi i32 [ %62, %61 ], [ 0, %53 ], [ %72, %71 ], [ 0, %10 ]
  %75 = icmp eq i32 %74, %14
  br i1 %75, label %76, label %78

76:                                               ; preds = %73
  %77 = call i32 @puts(i8* nonnull dereferenceable(1) getelementptr inbounds ([3 x i8], [3 x i8]* @str, i64 0, i64 0))
  br label %78

78:                                               ; preds = %76, %73
  call void @llvm.lifetime.end.p0i8(i64 400040, i8* nonnull %7) #6
  call void @llvm.lifetime.end.p0i8(i64 100010, i8* nonnull %6) #6
  %79 = add nuw nsw i32 %11, 1
  %80 = load i32, i32* %1, align 4, !tbaa !5
  %81 = icmp slt i32 %79, %80
  br i1 %81, label %10, label %82, !llvm.loop !13

82:                                               ; preds = %78, %0
  call void @llvm.lifetime.end.p0i8(i64 4, i8* nonnull %4) #6
  ret i32 0

83:                                               ; preds = %36
  %84 = load i32, i32* %25, align 4, !tbaa !5
  %85 = add nsw i32 %84, 1
  store i32 %85, i32* %25, align 4, !tbaa !5
  br label %86

86:                                               ; preds = %83, %36
  %87 = add nuw nsw i64 %28, 2
  %88 = add i64 %29, -2
  %89 = icmp eq i64 %88, 0
  br i1 %89, label %41, label %27, !llvm.loop !14
}

; Function Attrs: argmemonly mustprogress nofree nosync nounwind willreturn
declare void @llvm.lifetime.start.p0i8(i64 immarg, i8* nocapture) #1

; Function Attrs: nofree nounwind
declare noundef i32 @__isoc99_scanf(i8* nocapture noundef readonly, ...) local_unnamed_addr #2

; Function Attrs: argmemonly mustprogress nofree nounwind willreturn writeonly
declare void @llvm.memset.p0i8.i64(i8* nocapture writeonly, i8, i64, i1 immarg) #3

; Function Attrs: argmemonly mustprogress nofree nounwind readonly willreturn
declare i64 @strlen(i8* nocapture) local_unnamed_addr #4

; Function Attrs: nofree nounwind
declare noundef i32 @printf(i8* nocapture noundef readonly, ...) local_unnamed_addr #2

; Function Attrs: argmemonly mustprogress nofree nosync nounwind willreturn
declare void @llvm.lifetime.end.p0i8(i64 immarg, i8* nocapture) #1

; Function Attrs: nofree nounwind
declare noundef i32 @puts(i8* nocapture noundef readonly) local_unnamed_addr #5


!llvm.module.flags = !{!0, !1, !2, !3}
!llvm.ident = !{!4}

!0 = !{i32 1, !"wchar_size", i32 4}
!1 = !{i32 7, !"PIC Level", i32 2}
!2 = !{i32 7, !"PIE Level", i32 2}
!3 = !{i32 7, !"uwtable", i32 1}
!4 = !{!"clang version 13.0.0"}
!5 = !{!6, !6, i64 0}
!6 = !{!"int", !7, i64 0}
!7 = !{!"omnipotent char", !8, i64 0}
!8 = !{!"Simple C/C++ TBAA"}
!9 = !{!7, !7, i64 0}
!10 = distinct !{!10, !11}
!11 = !{!"llvm.loop.mustprogress"}
!12 = distinct !{!12, !11}
!13 = distinct !{!13, !11}
!14 = distinct !{!14, !11}
